target datalayout = "e-m:e-p270:32:32-p271:32:32-p272:64:64-i64:64-i128:128-f80:128-n8:16:32:64-S128"
target triple = "x86_64-pc-linux-gnu"

%struct.SDL_Palette = type { i32, ptr, i32, i32 }
%struct.SDL_Color = type { i8, i8, i8, i8 }

; Function Attrs: nounwind uwtable
define hidden zeroext i8 @SDL_FindColor(ptr noundef %0, i8 noundef zeroext %1, i8 noundef zeroext %2, i8 noundef zeroext %3, i8 noundef zeroext %4) #0 {
  %6 = alloca ptr, align 8
  %7 = alloca i8, align 1
  %8 = alloca i8, align 1
  %9 = alloca i8, align 1
  %10 = alloca i8, align 1
  %11 = alloca i32, align 4
  %12 = alloca i32, align 4
  %13 = alloca i32, align 4
  %14 = alloca i32, align 4
  %15 = alloca i32, align 4
  %16 = alloca i32, align 4
  %17 = alloca i32, align 4
  %18 = alloca i8, align 1
  store ptr %0, ptr %6, align 8
  store i8 %1, ptr %7, align 1
  store i8 %2, ptr %8, align 1
  store i8 %3, ptr %9, align 1
  store i8 %4, ptr %10, align 1
  call void @llvm.lifetime.start.p0(i64 4, ptr %11) #7
  call void @llvm.lifetime.start.p0(i64 4, ptr %12) #7
  call void @llvm.lifetime.start.p0(i64 4, ptr %13) #7
  call void @llvm.lifetime.start.p0(i64 4, ptr %14) #7
  call void @llvm.lifetime.start.p0(i64 4, ptr %15) #7
  call void @llvm.lifetime.start.p0(i64 4, ptr %16) #7
  call void @llvm.lifetime.start.p0(i64 4, ptr %17) #7
  call void @llvm.lifetime.start.p0(i64 1, ptr %18) #7
  store i8 0, ptr %18, align 1
  store i32 -1, ptr %11, align 4
  store i32 0, ptr %17, align 4
  br label %19

19:                                               ; preds = %101, %5
  %20 = load i32, ptr %17, align 4
  %21 = load ptr, ptr %6, align 8
  %22 = getelementptr inbounds nuw %struct.SDL_Palette, ptr %21, i32 0, i32 0
  %23 = load i32, ptr %22, align 8
  %24 = icmp slt i32 %20, %23
  br i1 %24, label %25, label %104

25:                                               ; preds = %19
  %26 = load ptr, ptr %6, align 8
  %27 = getelementptr inbounds nuw %struct.SDL_Palette, ptr %26, i32 0, i32 1
  %28 = load ptr, ptr %27, align 8
  %29 = load i32, ptr %17, align 4
  %30 = sext i32 %29 to i64
  %31 = getelementptr inbounds %struct.SDL_Color, ptr %28, i64 %30
  %32 = getelementptr inbounds nuw %struct.SDL_Color, ptr %31, i32 0, i32 0
  %33 = load i8, ptr %32, align 1
  %34 = zext i8 %33 to i32
  %35 = load i8, ptr %7, align 1
  %36 = zext i8 %35 to i32
  %37 = sub nsw i32 %34, %36
  store i32 %37, ptr %13, align 4
  %38 = load ptr, ptr %6, align 8
  %39 = getelementptr inbounds nuw %struct.SDL_Palette, ptr %38, i32 0, i32 1
  %40 = load ptr, ptr %39, align 8
  %41 = load i32, ptr %17, align 4
  %42 = sext i32 %41 to i64
  %43 = getelementptr inbounds %struct.SDL_Color, ptr %40, i64 %42
  %44 = getelementptr inbounds nuw %struct.SDL_Color, ptr %43, i32 0, i32 1
  %45 = load i8, ptr %44, align 1
  %46 = zext i8 %45 to i32
  %47 = load i8, ptr %8, align 1
  %48 = zext i8 %47 to i32
  %49 = sub nsw i32 %46, %48
  store i32 %49, ptr %14, align 4
  %50 = load ptr, ptr %6, align 8
  %51 = getelementptr inbounds nuw %struct.SDL_Palette, ptr %50, i32 0, i32 1
  %52 = load ptr, ptr %51, align 8
  %53 = load i32, ptr %17, align 4
  %54 = sext i32 %53 to i64
  %55 = getelementptr inbounds %struct.SDL_Color, ptr %52, i64 %54
  %56 = getelementptr inbounds nuw %struct.SDL_Color, ptr %55, i32 0, i32 2
  %57 = load i8, ptr %56, align 1
  %58 = zext i8 %57 to i32
  %59 = load i8, ptr %9, align 1
  %60 = zext i8 %59 to i32
  %61 = sub nsw i32 %58, %60
  store i32 %61, ptr %15, align 4
  %62 = load ptr, ptr %6, align 8
  %63 = getelementptr inbounds nuw %struct.SDL_Palette, ptr %62, i32 0, i32 1
  %64 = load ptr, ptr %63, align 8
  %65 = load i32, ptr %17, align 4
  %66 = sext i32 %65 to i64
  %67 = getelementptr inbounds %struct.SDL_Color, ptr %64, i64 %66
  %68 = getelementptr inbounds nuw %struct.SDL_Color, ptr %67, i32 0, i32 3
  %69 = load i8, ptr %68, align 1
  %70 = zext i8 %69 to i32
  %71 = load i8, ptr %10, align 1
  %72 = zext i8 %71 to i32
  %73 = sub nsw i32 %70, %72
  store i32 %73, ptr %16, align 4
  %74 = load i32, ptr %13, align 4
  %75 = load i32, ptr %13, align 4
  %76 = mul nsw i32 %74, %75
  %77 = load i32, ptr %14, align 4
  %78 = load i32, ptr %14, align 4
  %79 = mul nsw i32 %77, %78
  %80 = add nsw i32 %76, %79
  %81 = load i32, ptr %15, align 4
  %82 = load i32, ptr %15, align 4
  %83 = mul nsw i32 %81, %82
  %84 = add nsw i32 %80, %83
  %85 = load i32, ptr %16, align 4
  %86 = load i32, ptr %16, align 4
  %87 = mul nsw i32 %85, %86
  %88 = add nsw i32 %84, %87
  store i32 %88, ptr %12, align 4
  %89 = load i32, ptr %12, align 4
  %90 = load i32, ptr %11, align 4
  %91 = icmp ult i32 %89, %90
  br i1 %91, label %92, label %100

92:                                               ; preds = %25
  %93 = load i32, ptr %17, align 4
  %94 = trunc i32 %93 to i8
  store i8 %94, ptr %18, align 1
  %95 = load i32, ptr %12, align 4
  %96 = icmp eq i32 %95, 0
  br i1 %96, label %97, label %98

97:                                               ; preds = %92
  br label %104

98:                                               ; preds = %92
  %99 = load i32, ptr %12, align 4
  store i32 %99, ptr %11, align 4
  br label %100

100:                                              ; preds = %98, %25
  br label %101

101:                                              ; preds = %100
  %102 = load i32, ptr %17, align 4
  %103 = add nsw i32 %102, 1
  store i32 %103, ptr %17, align 4
  br label %19, !llvm.loop !15

104:                                              ; preds = %97, %19
  %105 = load i8, ptr %18, align 1
  call void @llvm.lifetime.end.p0(i64 1, ptr %18) #7
  call void @llvm.lifetime.end.p0(i64 4, ptr %17) #7
  call void @llvm.lifetime.end.p0(i64 4, ptr %16) #7
  call void @llvm.lifetime.end.p0(i64 4, ptr %15) #7
  call void @llvm.lifetime.end.p0(i64 4, ptr %14) #7
  call void @llvm.lifetime.end.p0(i64 4, ptr %13) #7
  call void @llvm.lifetime.end.p0(i64 4, ptr %12) #7
  call void @llvm.lifetime.end.p0(i64 4, ptr %11) #7
  ret i8 %105
}

; Function Attrs: nounwind uwtable
define hidden zeroext i8 @SDL_LookupRGBAColor(ptr noundef %0, i32 noundef %1, ptr noundef %2) #0 {
  %4 = alloca ptr, align 8
  %5 = alloca i32, align 4
  %6 = alloca ptr, align 8
  %7 = alloca i8, align 1
  %8 = alloca ptr, align 8
  %9 = alloca i8, align 1
  %10 = alloca i8, align 1
  %11 = alloca i8, align 1
  %12 = alloca i8, align 1
  store ptr %0, ptr %4, align 8
  store i32 %1, ptr %5, align 4
  store ptr %2, ptr %6, align 8
  call void @llvm.lifetime.start.p0(i64 1, ptr %7) #7
  store i8 0, ptr %7, align 1
  call void @llvm.lifetime.start.p0(i64 8, ptr %8) #7
  %13 = load ptr, ptr %4, align 8
  %14 = load i32, ptr %5, align 4
  %15 = zext i32 %14 to i64
  %16 = inttoptr i64 %15 to ptr
  %17 = call zeroext i1 @SDL_FindInHashTable(ptr noundef %13, ptr noundef %16, ptr noundef %8)
  br i1 %17, label %18, label %22

18:                                               ; preds = %3
  %19 = load ptr, ptr %8, align 8
  %20 = ptrtoint ptr %19 to i64
  %21 = trunc i64 %20 to i8
  store i8 %21, ptr %7, align 1
  br label %53

22:                                               ; preds = %3
  call void @llvm.lifetime.start.p0(i64 1, ptr %9) #7
  %23 = load i32, ptr %5, align 4
  %24 = lshr i32 %23, 24
  %25 = and i32 %24, 255
  %26 = trunc i32 %25 to i8
  store i8 %26, ptr %9, align 1
  call void @llvm.lifetime.start.p0(i64 1, ptr %10) #7
  %27 = load i32, ptr %5, align 4
  %28 = lshr i32 %27, 16
  %29 = and i32 %28, 255
  %30 = trunc i32 %29 to i8
  store i8 %30, ptr %10, align 1
  call void @llvm.lifetime.start.p0(i64 1, ptr %11) #7
  %31 = load i32, ptr %5, align 4
  %32 = lshr i32 %31, 8
  %33 = and i32 %32, 255
  %34 = trunc i32 %33 to i8
  store i8 %34, ptr %11, align 1
  call void @llvm.lifetime.start.p0(i64 1, ptr %12) #7
  %35 = load i32, ptr %5, align 4
  %36 = lshr i32 %35, 0
  %37 = and i32 %36, 255
  %38 = trunc i32 %37 to i8
  store i8 %38, ptr %12, align 1
  %39 = load ptr, ptr %6, align 8
  %40 = load i8, ptr %9, align 1
  %41 = load i8, ptr %10, align 1
  %42 = load i8, ptr %11, align 1
  %43 = load i8, ptr %12, align 1
  %44 = call zeroext i8 @SDL_FindColor(ptr noundef %39, i8 noundef zeroext %40, i8 noundef zeroext %41, i8 noundef zeroext %42, i8 noundef zeroext %43)
  store i8 %44, ptr %7, align 1
  %45 = load ptr, ptr %4, align 8
  %46 = load i32, ptr %5, align 4
  %47 = zext i32 %46 to i64
  %48 = inttoptr i64 %47 to ptr
  %49 = load i8, ptr %7, align 1
  %50 = zext i8 %49 to i64
  %51 = inttoptr i64 %50 to ptr
  %52 = call zeroext i1 @SDL_InsertIntoHashTable(ptr noundef %45, ptr noundef %48, ptr noundef %51, i1 noundef zeroext true)
  call void @llvm.lifetime.end.p0(i64 1, ptr %12) #7
  call void @llvm.lifetime.end.p0(i64 1, ptr %11) #7
  call void @llvm.lifetime.end.p0(i64 1, ptr %10) #7
  call void @llvm.lifetime.end.p0(i64 1, ptr %9) #7
  br label %53

53:                                               ; preds = %22, %18
  %54 = load i8, ptr %7, align 1
  call void @llvm.lifetime.end.p0(i64 8, ptr %8) #7
  call void @llvm.lifetime.end.p0(i64 1, ptr %7) #7
  ret i8 %54
}