; Function Attrs: nounwind uwtable
define hidden zeroext i8 @SDL_LookupRGBAColor(ptr noundef %0, i32 noundef %1, ptr noundef readonly captures(none) %2) local_unnamed_addr #1 {
  %4 = alloca ptr, align 8
  call void @llvm.lifetime.start.p0(i64 8, ptr nonnull %4) #15
  %5 = zext i32 %1 to i64
  %6 = inttoptr i64 %5 to ptr
  %7 = call zeroext i1 @SDL_FindInHashTable(ptr noundef %0, ptr noundef %6, ptr noundef nonnull %4) #15
  br i1 %7, label %8, label %12

8:                                                ; preds = %3
  %9 = load ptr, ptr %4, align 8
  %10 = ptrtoint ptr %9 to i64
  %11 = trunc i64 %10 to i8
  br label %55

12:                                               ; preds = %3
  %13 = load i32, ptr %2, align 8
  %14 = icmp sgt i32 %13, 0
  br i1 %14, label %.lr.ph.i, label %SDL_FindColor.exit

.lr.ph.i:                                         ; preds = %12
  %15 = lshr i32 %1, 8
  %16 = lshr i32 %1, 16
  %17 = lshr i32 %1, 24
  %18 = getelementptr inbounds nuw i8, ptr %2, i64 8
  %19 = load ptr, ptr %18, align 8
  %20 = and i32 %16, 255
  %21 = and i32 %15, 255
  %22 = and i32 %1, 255
  %wide.trip.count.i = zext nneg i32 %13 to i64
  br label %23

23:                                               ; preds = %51, %.lr.ph.i
  %indvars.iv.i = phi i64 [ 0, %.lr.ph.i ], [ %indvars.iv.next.i, %51 ]
  %.034.i = phi i8 [ 0, %.lr.ph.i ], [ %.2.i, %51 ]
  %.02932.i = phi i32 [ -1, %.lr.ph.i ], [ %.130.i, %51 ]
  %24 = getelementptr inbounds nuw %struct.SDL_Color, ptr %19, i64 %indvars.iv.i
  %25 = load i8, ptr %24, align 1
  %26 = zext i8 %25 to i32
  %27 = sub nsw i32 %26, %17
  %28 = getelementptr inbounds nuw i8, ptr %24, i64 1
  %29 = load i8, ptr %28, align 1
  %30 = zext i8 %29 to i32
  %31 = sub nsw i32 %30, %20
  %32 = getelementptr inbounds nuw i8, ptr %24, i64 2
  %33 = load i8, ptr %32, align 1
  %34 = zext i8 %33 to i32
  %35 = sub nsw i32 %34, %21
  %36 = getelementptr inbounds nuw i8, ptr %24, i64 3
  %37 = load i8, ptr %36, align 1
  %38 = zext i8 %37 to i32
  %39 = sub nsw i32 %38, %22
  %40 = mul nsw i32 %27, %27
  %41 = mul nsw i32 %31, %31
  %42 = add nuw nsw i32 %41, %40
  %43 = mul nsw i32 %35, %35
  %44 = add nuw nsw i32 %42, %43
  %45 = mul nsw i32 %39, %39
  %46 = add nuw nsw i32 %44, %45
  %47 = icmp ult i32 %46, %.02932.i
  br i1 %47, label %48, label %51

48:                                               ; preds = %23
  %49 = trunc i64 %indvars.iv.i to i8
  %50 = icmp eq i32 %46, 0
  br i1 %50, label %SDL_FindColor.exit, label %51

51:                                               ; preds = %48, %23
  %.130.i = phi i32 [ %.02932.i, %23 ], [ %46, %48 ]
  %.2.i = phi i8 [ %.034.i, %23 ], [ %49, %48 ]
  %indvars.iv.next.i = add nuw nsw i64 %indvars.iv.i, 1
  %exitcond.not.i = icmp eq i64 %indvars.iv.next.i, %wide.trip.count.i
  br i1 %exitcond.not.i, label %SDL_FindColor.exit, label %23, !llvm.loop !13

SDL_FindColor.exit:                               ; preds = %48, %51, %12
  %.1.i = phi i8 [ 0, %12 ], [ %.2.i, %51 ], [ %49, %48 ]
  %52 = zext i8 %.1.i to i64
  %53 = inttoptr i64 %52 to ptr
  %54 = call zeroext i1 @SDL_InsertIntoHashTable(ptr noundef %0, ptr noundef %6, ptr noundef %53, i1 noundef zeroext true) #15
  br label %55

55:                                               ; preds = %SDL_FindColor.exit, %8
  %.0 = phi i8 [ %11, %8 ], [ %.1.i, %SDL_FindColor.exit ]
  call void @llvm.lifetime.end.p0(i64 8, ptr nonnull %4) #15
  ret i8 %.0
}